Certificate:
    Data:
        Version: 3 (0x2)
        Serial Number:
            27:55:a2:d3:d7:21:07:a3:57:e3:93:d6:c4:ca:2b:23:42:16:aa:71
        Signature Algorithm: sha256WithRSAEncryption
        Issuer: C = ZA, ST = Gauteng, L = Pretoria, O = EHN students, CN = Bob Ross
        Validity
            Not Before: Feb 27 08:41:57 2020 GMT
            Not After : Feb 26 08:41:57 2023 GMT
        Subject: C = ZA, ST = Gauteng, L = Pretoria, O = EHN students, CN = Bob Ross
        Subject Public Key Info:
            Public Key Algorithm: rsaEncryption
                RSA Public-Key: (1024 bit)
                Modulus:
                    00:cf:fd:fc:3f:e4:cc:5d:06:aa:4f:be:6c:11:21:
                    b6:d9:3f:29:ca:51:58:06:17:ef:a3:8a:e9:bb:ac:
                    f4:13:6d:28:b5:99:bf:e7:87:53:f3:c1:13:fd:2f:
                    db:52:36:3e:0f:02:69:ad:82:1f:03:8e:90:d0:6c:
                    c4:df:57:a6:8c:c1:da:aa:3c:f4:80:62:a6:7e:0d:
                    55:22:a2:d5:4a:8d:a5:f9:15:8c:bb:64:37:b4:af:
                    e4:5d:77:0e:c6:cc:59:ca:ed:37:fd:70:31:a8:5c:
                    71:12:fc:e4:0d:68:7f:71:b1:dd:90:75:c7:da:7c:
                    3a:4c:14:1a:69:55:de:73:05
                Exponent: 65537 (0x10001)
        X509v3 extensions:
            X509v3 Subject Key Identifier: 
                1A:45:DF:57:C7:61:AF:0C:84:C2:4E:38:22:62:F6:1B:44:92:64:C0
            X509v3 Authority Key Identifier: 
                keyid:1A:45:DF:57:C7:61:AF:0C:84:C2:4E:38:22:62:F6:1B:44:92:64:C0

            X509v3 Basic Constraints: critical
                CA:TRUE
    Signature Algorithm: sha256WithRSAEncryption
         92:e3:cc:22:05:35:be:ac:e0:52:a1:0e:1e:3c:f9:73:e4:4f:
         14:fd:8f:45:0f:12:f7:1c:5a:73:3d:51:ca:3c:9d:c5:98:d9:
         8b:dc:4e:0b:70:0f:b1:e2:ab:c5:3c:7c:86:f4:26:2a:3a:14:
         09:2b:56:9d:1a:5f:c5:9c:e6:c3:f3:1b:73:35:79:26:8c:50:
         a5:30:0b:b5:9d:20:30:2b:83:6f:e2:7f:20:e5:f0:74:d4:d0:
         44:0c:55:42:47:52:d3:97:8a:6a:76:ee:fe:e3:35:c6:35:a6:
         47:a5:19:0e:b1:64:3b:07:ee:32:f2:71:cf:23:da:c3:62:1e:
         83:57
-----BEGIN CERTIFICATE-----
MIIClDCCAf2gAwIBAgIUJ1Wi09chB6NX45PWxMorI0IWqnEwDQYJKoZIhvcNAQEL
BQAwXDELMAkGA1UEBhMCWkExEDAOBgNVBAgMB0dhdXRlbmcxETAPBgNVBAcMCFBy
ZXRvcmlhMRUwEwYDVQQKDAxFSE4gc3R1ZGVudHMxETAPBgNVBAMMCEJvYiBSb3Nz
MB4XDTIwMDIyNzA4NDE1N1oXDTIzMDIyNjA4NDE1N1owXDELMAkGA1UEBhMCWkEx
EDAOBgNVBAgMB0dhdXRlbmcxETAPBgNVBAcMCFByZXRvcmlhMRUwEwYDVQQKDAxF
SE4gc3R1ZGVudHMxETAPBgNVBAMMCEJvYiBSb3NzMIGfMA0GCSqGSIb3DQEBAQUA
A4GNADCBiQKBgQDP/fw/5MxdBqpPvmwRIbbZPynKUVgGF++jium7rPQTbSi1mb/n
h1PzwRP9L9tSNj4PAmmtgh8DjpDQbMTfV6aMwdqqPPSAYqZ+DVUiotVKjaX5FYy7
ZDe0r+Rddw7GzFnK7Tf9cDGoXHES/OQNaH9xsd2QdcfafDpMFBppVd5zBQIDAQAB
o1MwUTAdBgNVHQ4EFgQUGkXfV8dhrwyEwk44ImL2G0SSZMAwHwYDVR0jBBgwFoAU
GkXfV8dhrwyEwk44ImL2G0SSZMAwDwYDVR0TAQH/BAUwAwEB/zANBgkqhkiG9w0B
AQsFAAOBgQCS48wiBTW+rOBSoQ4ePPlz5E8U/Y9FDxL3HFpzPVHKPJ3FmNmL3E4L
cA+x4qvFPHyG9CYqOhQJK1adGl/FnObD8xtzNXkmjFClMAu1nSAwK4Nv4n8g5fB0
1NBEDFVCR1LTl4pqdu7+4zXGNaZHpRkOsWQ7B+4y8nHPI9rDYh6DVw==
-----END CERTIFICATE-----
